; ModuleID = '23/1181.c'
source_filename = "23/1181.c"
target datalayout = "e-m:e-p270:32:32-p271:32:32-p272:64:64-i64:64-f80:128-n8:16:32:64-S128"
target triple = "x86_64-pc-linux-gnu"

@.str = private unnamed_addr constant [4 x i8] c"%s \00", align 1
@.str.1 = private unnamed_addr constant [3 x i8] c"%s\00", align 1

; Function Attrs: noinline nounwind uwtable
define dso_local void @main() #0 {
  %1 = alloca i8*, align 8
  %2 = alloca i8*, align 8
  %3 = alloca i8*, align 8
  %4 = call noalias i8* @malloc(i64 100) #4
  store i8* %4, i8** %1, align 8
  %5 = load i8*, i8** %1, align 8
  %6 = call i32 (i8*, ...) bitcast (i32 (...)* @gets to i32 (i8*, ...)*)(i8* %5)
  %7 = load i8*, i8** %1, align 8
  %8 = load i8*, i8** %1, align 8
  %9 = call i64 @strlen(i8* %8) #5
  %10 = getelementptr inbounds i8, i8* %7, i64 %9
  %11 = getelementptr inbounds i8, i8* %10, i64 -1
  store i8* %11, i8** %2, align 8
  br label %12

12:                                               ; preds = %35, %0
  %13 = load i8*, i8** %2, align 8
  %14 = load i8*, i8** %1, align 8
  %15 = icmp uge i8* %13, %14
  br i1 %15, label %16, label %38

16:                                               ; preds = %12
  %17 = load i8*, i8** %2, align 8
  %18 = load i8, i8* %17, align 1
  %19 = sext i8 %18 to i32
  %20 = icmp eq i32 %19, 32
  br i1 %20, label %21, label %27

21:                                               ; preds = %16
  %22 = load i8*, i8** %2, align 8
  %23 = getelementptr inbounds i8, i8* %22, i64 1
  store i8* %23, i8** %3, align 8
  %24 = load i8*, i8** %3, align 8
  %25 = call i32 (i8*, ...) @printf(i8* getelementptr inbounds ([4 x i8], [4 x i8]* @.str, i64 0, i64 0), i8* %24)
  %26 = load i8*, i8** %2, align 8
  store i8 0, i8* %26, align 1
  br label %27

27:                                               ; preds = %21, %16
  %28 = load i8*, i8** %2, align 8
  %29 = load i8*, i8** %1, align 8
  %30 = icmp eq i8* %28, %29
  br i1 %30, label %31, label %34

31:                                               ; preds = %27
  %32 = load i8*, i8** %2, align 8
  %33 = call i32 (i8*, ...) @printf(i8* getelementptr inbounds ([3 x i8], [3 x i8]* @.str.1, i64 0, i64 0), i8* %32)
  br label %34

34:                                               ; preds = %31, %27
  br label %35

35:                                               ; preds = %34
  %36 = load i8*, i8** %2, align 8
  %37 = getelementptr inbounds i8, i8* %36, i32 -1
  store i8* %37, i8** %2, align 8
  br label %12

38:                                               ; preds = %12
  ret void
}

; Function Attrs: nounwind
declare dso_local noalias i8* @malloc(i64) #1

declare dso_local i32 @gets(...) #2

; Function Attrs: nounwind readonly
declare dso_local i64 @strlen(i8*) #3

declare dso_local i32 @printf(i8*, ...) #2


!llvm.module.flags = !{!0}
!llvm.ident = !{!1}

!0 = !{i32 1, !"wchar_size", i32 4}
!1 = !{!"clang version 10.0.0-4ubuntu1 "}
